; ModuleID = '24/250.c'
source_filename = "24/250.c"
target datalayout = "e-m:e-p270:32:32-p271:32:32-p272:64:64-i64:64-f80:128-n8:16:32:64-S128"
target triple = "x86_64-pc-linux-gnu"

@.str = private unnamed_addr constant [3 x i8] c"%s\00", align 1
@.str.1 = private unnamed_addr constant [3 x i8] c"%c\00", align 1
@.str.2 = private unnamed_addr constant [6 x i8] c"%s\0A%s\00", align 1

; Function Attrs: noinline nounwind uwtable
define dso_local i32 @main() #0 {
  %1 = alloca i32, align 4
  %2 = alloca [60 x [60 x i8]], align 16
  %3 = alloca i8, align 1
  %4 = alloca [60 x i8], align 16
  %5 = alloca [60 x i32], align 16
  %6 = alloca i32, align 4
  %7 = alloca i32, align 4
  %8 = alloca i32, align 4
  %9 = alloca i32, align 4
  store i32 0, i32* %1, align 4
  store i32 0, i32* %6, align 4
  br label %10

10:                                               ; preds = %31, %0
  %11 = load i32, i32* %6, align 4
  %12 = sext i32 %11 to i64
  %13 = getelementptr inbounds [60 x [60 x i8]], [60 x [60 x i8]]* %2, i64 0, i64 %12
  %14 = getelementptr inbounds [60 x i8], [60 x i8]* %13, i64 0, i64 0
  %15 = call i32 (i8*, ...) @__isoc99_scanf(i8* getelementptr inbounds ([3 x i8], [3 x i8]* @.str, i64 0, i64 0), i8* %14)
  %16 = load i32, i32* %6, align 4
  %17 = sext i32 %16 to i64
  %18 = getelementptr inbounds [60 x [60 x i8]], [60 x [60 x i8]]* %2, i64 0, i64 %17
  %19 = getelementptr inbounds [60 x i8], [60 x i8]* %18, i64 0, i64 0
  %20 = call i64 @strlen(i8* %19) #4
  %21 = trunc i64 %20 to i32
  %22 = load i32, i32* %6, align 4
  %23 = sext i32 %22 to i64
  %24 = getelementptr inbounds [60 x i32], [60 x i32]* %5, i64 0, i64 %23
  store i32 %21, i32* %24, align 4
  %25 = call i32 (i8*, ...) @__isoc99_scanf(i8* getelementptr inbounds ([3 x i8], [3 x i8]* @.str.1, i64 0, i64 0), i8* %3)
  %26 = load i8, i8* %3, align 1
  %27 = sext i8 %26 to i32
  %28 = icmp eq i32 %27, 10
  br i1 %28, label %29, label %30

29:                                               ; preds = %10
  br label %34

30:                                               ; preds = %10
  br label %31

31:                                               ; preds = %30
  %32 = load i32, i32* %6, align 4
  %33 = add nsw i32 %32, 1
  store i32 %33, i32* %6, align 4
  br label %10

34:                                               ; preds = %29
  %35 = load i32, i32* %6, align 4
  store i32 %35, i32* %7, align 4
  %36 = load i32, i32* %7, align 4
  store i32 %36, i32* %6, align 4
  br label %37

37:                                               ; preds = %102, %34
  %38 = load i32, i32* %6, align 4
  %39 = icmp sgt i32 %38, 0
  br i1 %39, label %40, label %105

40:                                               ; preds = %37
  store i32 0, i32* %8, align 4
  br label %41

41:                                               ; preds = %98, %40
  %42 = load i32, i32* %8, align 4
  %43 = load i32, i32* %6, align 4
  %44 = icmp slt i32 %42, %43
  br i1 %44, label %45, label %101

45:                                               ; preds = %41
  %46 = load i32, i32* %8, align 4
  %47 = sext i32 %46 to i64
  %48 = getelementptr inbounds [60 x i32], [60 x i32]* %5, i64 0, i64 %47
  %49 = load i32, i32* %48, align 4
  %50 = load i32, i32* %8, align 4
  %51 = add nsw i32 %50, 1
  %52 = sext i32 %51 to i64
  %53 = getelementptr inbounds [60 x i32], [60 x i32]* %5, i64 0, i64 %52
  %54 = load i32, i32* %53, align 4
  %55 = icmp sgt i32 %49, %54
  br i1 %55, label %56, label %97

56:                                               ; preds = %45
  %57 = getelementptr inbounds [60 x i8], [60 x i8]* %4, i64 0, i64 0
  %58 = load i32, i32* %8, align 4
  %59 = sext i32 %58 to i64
  %60 = getelementptr inbounds [60 x [60 x i8]], [60 x [60 x i8]]* %2, i64 0, i64 %59
  %61 = getelementptr inbounds [60 x i8], [60 x i8]* %60, i64 0, i64 0
  %62 = call i8* @strcpy(i8* %57, i8* %61) #5
  %63 = load i32, i32* %8, align 4
  %64 = sext i32 %63 to i64
  %65 = getelementptr inbounds [60 x [60 x i8]], [60 x [60 x i8]]* %2, i64 0, i64 %64
  %66 = getelementptr inbounds [60 x i8], [60 x i8]* %65, i64 0, i64 0
  %67 = load i32, i32* %8, align 4
  %68 = add nsw i32 %67, 1
  %69 = sext i32 %68 to i64
  %70 = getelementptr inbounds [60 x [60 x i8]], [60 x [60 x i8]]* %2, i64 0, i64 %69
  %71 = getelementptr inbounds [60 x i8], [60 x i8]* %70, i64 0, i64 0
  %72 = call i8* @strcpy(i8* %66, i8* %71) #5
  %73 = load i32, i32* %8, align 4
  %74 = add nsw i32 %73, 1
  %75 = sext i32 %74 to i64
  %76 = getelementptr inbounds [60 x [60 x i8]], [60 x [60 x i8]]* %2, i64 0, i64 %75
  %77 = getelementptr inbounds [60 x i8], [60 x i8]* %76, i64 0, i64 0
  %78 = getelementptr inbounds [60 x i8], [60 x i8]* %4, i64 0, i64 0
  %79 = call i8* @strcpy(i8* %77, i8* %78) #5
  %80 = load i32, i32* %8, align 4
  %81 = sext i32 %80 to i64
  %82 = getelementptr inbounds [60 x i32], [60 x i32]* %5, i64 0, i64 %81
  %83 = load i32, i32* %82, align 4
  store i32 %83, i32* %9, align 4
  %84 = load i32, i32* %8, align 4
  %85 = add nsw i32 %84, 1
  %86 = sext i32 %85 to i64
  %87 = getelementptr inbounds [60 x i32], [60 x i32]* %5, i64 0, i64 %86
  %88 = load i32, i32* %87, align 4
  %89 = load i32, i32* %8, align 4
  %90 = sext i32 %89 to i64
  %91 = getelementptr inbounds [60 x i32], [60 x i32]* %5, i64 0, i64 %90
  store i32 %88, i32* %91, align 4
  %92 = load i32, i32* %9, align 4
  %93 = load i32, i32* %8, align 4
  %94 = add nsw i32 %93, 1
  %95 = sext i32 %94 to i64
  %96 = getelementptr inbounds [60 x i32], [60 x i32]* %5, i64 0, i64 %95
  store i32 %92, i32* %96, align 4
  br label %97

97:                                               ; preds = %56, %45
  br label %98

98:                                               ; preds = %97
  %99 = load i32, i32* %8, align 4
  %100 = add nsw i32 %99, 1
  store i32 %100, i32* %8, align 4
  br label %41

101:                                              ; preds = %41
  br label %102

102:                                              ; preds = %101
  %103 = load i32, i32* %6, align 4
  %104 = add nsw i32 %103, -1
  store i32 %104, i32* %6, align 4
  br label %37

105:                                              ; preds = %37
  %106 = load i32, i32* %7, align 4
  %107 = sext i32 %106 to i64
  %108 = getelementptr inbounds [60 x [60 x i8]], [60 x [60 x i8]]* %2, i64 0, i64 %107
  %109 = getelementptr inbounds [60 x i8], [60 x i8]* %108, i64 0, i64 0
  %110 = getelementptr inbounds [60 x [60 x i8]], [60 x [60 x i8]]* %2, i64 0, i64 0
  %111 = getelementptr inbounds [60 x i8], [60 x i8]* %110, i64 0, i64 0
  %112 = call i32 (i8*, ...) @printf(i8* getelementptr inbounds ([6 x i8], [6 x i8]* @.str.2, i64 0, i64 0), i8* %109, i8* %111)
  ret i32 0
}

declare dso_local i32 @__isoc99_scanf(i8*, ...) #1

; Function Attrs: nounwind readonly
declare dso_local i64 @strlen(i8*) #2

; Function Attrs: nounwind
declare dso_local i8* @strcpy(i8*, i8*) #3

declare dso_local i32 @printf(i8*, ...) #1


!llvm.module.flags = !{!0}
!llvm.ident = !{!1}

!0 = !{i32 1, !"wchar_size", i32 4}
!1 = !{!"clang version 10.0.0-4ubuntu1 "}
